; ModuleID = 'bench/osqp/original/timing_linux.ll'
source_filename = "bench/osqp/original/timing_linux.ll"
target datalayout = "e-m:e-p270:32:32-p271:32:32-p272:64:64-i64:64-i128:128-f80:128-n8:16:32:64-S128"
target triple = "x86_64-pc-linux-gnu"

; Function Attrs: mustprogress nofree nounwind willreturn memory(inaccessiblemem: readwrite) uwtable
define noalias noundef ptr @OSQPTimer_new() local_unnamed_addr #0 {
  %1 = tail call noalias dereferenceable_or_null(32) ptr @malloc(i64 noundef 32) #6
  ret ptr %1
}

; Function Attrs: mustprogress nofree nounwind willreturn allockind("alloc,uninitialized") allocsize(0) memory(inaccessiblemem: readwrite)
declare noalias noundef ptr @malloc(i64 noundef) local_unnamed_addr #1

; Function Attrs: mustprogress nounwind willreturn memory(argmem: readwrite, inaccessiblemem: readwrite) uwtable
define void @OSQPTimer_free(ptr noundef captures(address_is_null) %0) local_unnamed_addr #2 {
  %.not = icmp eq ptr %0, null
  br i1 %.not, label %3, label %2

2:                                                ; preds = %1
  tail call void @free(ptr noundef nonnull %0) #7
  br label %3

3:                                                ; preds = %2, %1
  ret void
}

; Function Attrs: mustprogress nounwind willreturn allockind("free") memory(argmem: readwrite, inaccessiblemem: readwrite)
declare void @free(ptr allocptr noundef captures(none)) local_unnamed_addr #3

; Function Attrs: nounwind uwtable
define void @osqp_tic(ptr noundef %0) local_unnamed_addr #4 {
  %2 = tail call i32 @clock_gettime(i32 noundef 1, ptr noundef %0) #7
  ret void
}

; Function Attrs: nounwind
declare i32 @clock_gettime(i32 noundef, ptr noundef) local_unnamed_addr #5

; Function Attrs: nounwind uwtable
define double @osqp_toc(ptr noundef %0) local_unnamed_addr #4 {
  %2 = getelementptr inbounds nuw i8, ptr %0, i64 16
  %3 = tail call i32 @clock_gettime(i32 noundef 1, ptr noundef nonnull %2) #7
  %4 = getelementptr inbounds nuw i8, ptr %0, i64 24
  %5 = load i64, ptr %4, align 8, !tbaa !3
  %6 = getelementptr inbounds nuw i8, ptr %0, i64 8
  %7 = load i64, ptr %6, align 8, !tbaa !9
  %8 = sub nsw i64 %5, %7
  %9 = icmp slt i64 %8, 0
  %10 = load i64, ptr %2, align 8, !tbaa !10
  %11 = load i64, ptr %0, align 8, !tbaa !11
  br i1 %9, label %12, label %20

12:                                               ; preds = %1
  %13 = xor i64 %11, -1
  %14 = add i64 %10, %13
  %15 = sitofp i64 %5 to double
  %16 = fadd double %15, 1.000000e+09
  %17 = sitofp i64 %7 to double
  %18 = fsub double %16, %17
  %19 = fptosi double %18 to i64
  br label %22

20:                                               ; preds = %1
  %21 = sub nsw i64 %10, %11
  br label %22

22:                                               ; preds = %20, %12
  %.sroa.5.0 = phi i64 [ %19, %12 ], [ %8, %20 ]
  %.sroa.0.0 = phi i64 [ %14, %12 ], [ %21, %20 ]
  %23 = sitofp i64 %.sroa.0.0 to double
  %24 = sitofp i64 %.sroa.5.0 to double
  %25 = fdiv double %24, 1.000000e+09
  %26 = fadd double %25, %23
  ret double %26
}


!llvm.module.flags = !{!0, !1, !2}

!0 = !{i32 1, !"wchar_size", i32 4}
!1 = !{i32 8, !"PIC Level", i32 2}
!2 = !{i32 7, !"uwtable", i32 2}
!3 = !{!4, !6, i64 24}
!4 = !{!"OSQPTimer_", !5, i64 0, !5, i64 16}
!5 = !{!"timespec", !6, i64 0, !6, i64 8}
!6 = !{!"long", !7, i64 0}
!7 = !{!"omnipotent char", !8, i64 0}
!8 = !{!"Simple C/C++ TBAA"}
!9 = !{!4, !6, i64 8}
!10 = !{!4, !6, i64 16}
!11 = !{!4, !6, i64 0}
